target datalayout = "e-m:e-p270:32:32-p271:32:32-p272:64:64-i64:64-i128:128-f80:128-n8:16:32:64-S128"
target triple = "x86_64-pc-linux-gnu"

%struct._zend_posix_globals = type { i32 }
%struct._zval_struct = type { %union._zend_value, %union.anon, %union.anon.2 }
%union._zend_value = type { i64 }
%union.anon = type { i32 }
%union.anon.2 = type { i32 }
%struct._zend_execute_data = type { ptr, ptr, ptr, ptr, %struct._zval_struct, ptr, ptr, ptr, ptr }

@posix_globals = hidden global %struct._zend_posix_globals zeroinitializer, align 4
@.str.23 = private unnamed_addr constant [46 x i8] c"Unable to convert posix group struct to array\00", align 1

; Function Attrs: nounwind uwtable
define hidden void @zif_posix_getgrgid(ptr noundef %0, ptr noundef %1) #0 {
  %3 = alloca ptr, align 8
  %4 = alloca ptr, align 8
  %5 = alloca i1, align 1
  %6 = alloca ptr, align 8
  %7 = alloca ptr, align 8
  %8 = alloca ptr, align 8
  %9 = alloca i8, align 1
  %10 = alloca i32, align 4
  %11 = alloca i8, align 1
  %12 = alloca ptr, align 8
  %13 = alloca ptr, align 8
  %14 = alloca ptr, align 8
  %15 = alloca i8, align 1
  %16 = alloca i32, align 4
  %17 = alloca ptr, align 8
  %18 = alloca ptr, align 8
  %19 = alloca i64, align 8
  %20 = alloca ptr, align 8
  %21 = alloca i32, align 4
  %22 = alloca i32, align 4
  %23 = alloca i32, align 4
  %24 = alloca i32, align 4
  %25 = alloca i32, align 4
  %26 = alloca ptr, align 8
  %27 = alloca ptr, align 8
  %28 = alloca i32, align 4
  %29 = alloca ptr, align 8
  %30 = alloca i8, align 1
  %31 = alloca i8, align 1
  %32 = alloca i32, align 4
  %33 = alloca ptr, align 8
  %34 = alloca ptr, align 8
  store ptr %0, ptr %17, align 8
  store ptr %1, ptr %18, align 8
  br label %35

35:                                               ; preds = %2
  store i32 0, ptr %21, align 4
  store i32 1, ptr %22, align 4
  store i32 1, ptr %23, align 4
  %36 = load ptr, ptr %17, align 8
  %37 = getelementptr inbounds %struct._zend_execute_data, ptr %36, i32 0, i32 4
  %38 = getelementptr inbounds %struct._zval_struct, ptr %37, i32 0, i32 2
  %39 = load i32, ptr %38, align 4
  store i32 %39, ptr %24, align 4
  store i32 0, ptr %25, align 4
  store ptr null, ptr %27, align 8
  store i32 0, ptr %28, align 4
  store ptr null, ptr %29, align 8
  store i8 0, ptr %30, align 1
  store i8 0, ptr %31, align 1
  store i32 0, ptr %32, align 4
  br label %40

40:                                               ; preds = %35
  %41 = load i32, ptr %24, align 4
  %42 = load i32, ptr %22, align 4
  %43 = icmp ult i32 %41, %42
  %44 = xor i1 %43, true
  %45 = xor i1 %44, true
  %46 = zext i1 %45 to i32
  %47 = sext i32 %46 to i64
  %48 = icmp ne i64 %47, 0
  br i1 %48, label %58, label %49

49:                                               ; preds = %40
  %50 = load i32, ptr %24, align 4
  %51 = load i32, ptr %23, align 4
  %52 = icmp ugt i32 %50, %51
  %53 = xor i1 %52, true
  %54 = xor i1 %53, true
  %55 = zext i1 %54 to i32
  %56 = sext i32 %55 to i64
  %57 = icmp ne i64 %56, 0
  br i1 %57, label %58, label %61

58:                                               ; preds = %49, %40
  %59 = load i32, ptr %22, align 4
  %60 = load i32, ptr %23, align 4
  call void @zend_wrong_parameters_count_error(i32 noundef %59, i32 noundef %60)
  store i32 1, ptr %32, align 4
  br label %172

61:                                               ; preds = %49
  %62 = load ptr, ptr %17, align 8
  %63 = getelementptr inbounds %struct._zval_struct, ptr %62, i64 4
  store ptr %63, ptr %26, align 8
  %64 = load i32, ptr %25, align 4
  %65 = add i32 %64, 1
  store i32 %65, ptr %25, align 4
  %66 = load i32, ptr %25, align 4
  %67 = load i32, ptr %22, align 4
  %68 = icmp ule i32 %66, %67
  br i1 %68, label %74, label %69

69:                                               ; preds = %61
  %70 = load i8, ptr %31, align 1
  %71 = trunc i8 %70 to i1
  %72 = zext i1 %71 to i32
  %73 = icmp eq i32 %72, 1
  br label %74

74:                                               ; preds = %69, %61
  %75 = phi i1 [ true, %61 ], [ %73, %69 ]
  call void @llvm.assume(i1 %75)
  %76 = load i32, ptr %25, align 4
  %77 = load i32, ptr %22, align 4
  %78 = icmp ugt i32 %76, %77
  br i1 %78, label %84, label %79

79:                                               ; preds = %74
  %80 = load i8, ptr %31, align 1
  %81 = trunc i8 %80 to i1
  %82 = zext i1 %81 to i32
  %83 = icmp eq i32 %82, 0
  br label %84

84:                                               ; preds = %79, %74
  %85 = phi i1 [ true, %74 ], [ %83, %79 ]
  call void @llvm.assume(i1 %85)
  %86 = load i8, ptr %31, align 1
  %87 = trunc i8 %86 to i1
  br i1 %87, label %88, label %99

88:                                               ; preds = %84
  %89 = load i32, ptr %25, align 4
  %90 = load i32, ptr %24, align 4
  %91 = icmp ugt i32 %89, %90
  %92 = xor i1 %91, true
  %93 = xor i1 %92, true
  %94 = zext i1 %93 to i32
  %95 = sext i32 %94 to i64
  %96 = icmp ne i64 %95, 0
  br i1 %96, label %97, label %98

97:                                               ; preds = %88
  br label %172

98:                                               ; preds = %88
  br label %99

99:                                               ; preds = %98, %84
  %100 = load ptr, ptr %26, align 8
  %101 = getelementptr inbounds %struct._zval_struct, ptr %100, i32 1
  store ptr %101, ptr %26, align 8
  %102 = load ptr, ptr %26, align 8
  store ptr %102, ptr %27, align 8
  %103 = load ptr, ptr %27, align 8
  %104 = load i32, ptr %25, align 4
  store ptr %103, ptr %12, align 8
  store ptr %19, ptr %13, align 8
  store ptr %30, ptr %14, align 8
  store i8 0, ptr %15, align 1
  store i32 %104, ptr %16, align 4
  %105 = load ptr, ptr %12, align 8
  %106 = load ptr, ptr %13, align 8
  %107 = load ptr, ptr %14, align 8
  %108 = load i8, ptr %15, align 1
  %109 = trunc i8 %108 to i1
  %110 = load i32, ptr %16, align 4
  store ptr %105, ptr %6, align 8
  store ptr %106, ptr %7, align 8
  store ptr %107, ptr %8, align 8
  %111 = zext i1 %109 to i8
  store i8 %111, ptr %9, align 1
  store i32 %110, ptr %10, align 4
  store i8 0, ptr %11, align 1
  %112 = load i8, ptr %9, align 1
  %113 = trunc i8 %112 to i1
  br i1 %113, label %114, label %116

114:                                              ; preds = %99
  %115 = load ptr, ptr %8, align 8
  store i8 0, ptr %115, align 1
  br label %116

116:                                              ; preds = %114, %99
  %117 = load ptr, ptr %6, align 8
  store ptr %117, ptr %3, align 8
  %118 = load ptr, ptr %3, align 8
  %119 = getelementptr inbounds %struct._zval_struct, ptr %118, i32 0, i32 1
  %120 = load i8, ptr %119, align 8
  %121 = zext i8 %120 to i32
  %122 = icmp eq i32 %121, 4
  br i1 %122, label %123, label %127

123:                                              ; preds = %116
  %124 = load ptr, ptr %6, align 8
  %125 = load i64, ptr %124, align 8
  %126 = load ptr, ptr %7, align 8
  store i64 %125, ptr %126, align 8
  br label %153

127:                                              ; preds = %116
  %128 = load i8, ptr %9, align 1
  %129 = trunc i8 %128 to i1
  br i1 %129, label %130, label %140

130:                                              ; preds = %127
  %131 = load ptr, ptr %6, align 8
  store ptr %131, ptr %4, align 8
  %132 = load ptr, ptr %4, align 8
  %133 = getelementptr inbounds %struct._zval_struct, ptr %132, i32 0, i32 1
  %134 = load i8, ptr %133, align 8
  %135 = zext i8 %134 to i32
  %136 = icmp eq i32 %135, 1
  br i1 %136, label %137, label %140

137:                                              ; preds = %130
  %138 = load ptr, ptr %8, align 8
  store i8 1, ptr %138, align 1
  %139 = load ptr, ptr %7, align 8
  store i64 0, ptr %139, align 8
  br label %153

140:                                              ; preds = %130, %127
  %141 = load i8, ptr %11, align 1
  %142 = trunc i8 %141 to i1
  br i1 %142, label %143, label %148

143:                                              ; preds = %140
  %144 = load ptr, ptr %6, align 8
  %145 = load ptr, ptr %7, align 8
  %146 = load i32, ptr %10, align 4
  %147 = call zeroext i1 @zend_flf_parse_arg_long_slow(ptr noundef %144, ptr noundef %145, i32 noundef %146) #9
  store i1 %147, ptr %5, align 1
  br label %154

148:                                              ; preds = %140
  %149 = load ptr, ptr %6, align 8
  %150 = load ptr, ptr %7, align 8
  %151 = load i32, ptr %10, align 4
  %152 = call zeroext i1 @zend_parse_arg_long_slow(ptr noundef %149, ptr noundef %150, i32 noundef %151) #9
  store i1 %152, ptr %5, align 1
  br label %154

153:                                              ; preds = %137, %123
  store i1 true, ptr %5, align 1
  br label %154

154:                                              ; preds = %153, %148, %143
  %155 = load i1, ptr %5, align 1
  %156 = xor i1 %155, true
  %157 = xor i1 %156, true
  %158 = xor i1 %157, true
  %159 = zext i1 %158 to i32
  %160 = sext i32 %159 to i64
  %161 = icmp ne i64 %160, 0
  br i1 %161, label %162, label %163

162:                                              ; preds = %154
  store i32 0, ptr %28, align 4
  store i32 9, ptr %32, align 4
  br label %172

163:                                              ; preds = %154
  %164 = load i32, ptr %25, align 4
  %165 = load i32, ptr %23, align 4
  %166 = icmp eq i32 %164, %165
  br i1 %166, label %170, label %167

167:                                              ; preds = %163
  %168 = load i32, ptr %23, align 4
  %169 = icmp eq i32 %168, -1
  br label %170

170:                                              ; preds = %167, %163
  %171 = phi i1 [ true, %163 ], [ %169, %167 ]
  call void @llvm.assume(i1 %171)
  br label %172

172:                                              ; preds = %170, %162, %97, %58
  %173 = load i32, ptr %32, align 4
  %174 = icmp ne i32 %173, 0
  %175 = xor i1 %174, true
  %176 = xor i1 %175, true
  %177 = zext i1 %176 to i32
  %178 = sext i32 %177 to i64
  %179 = icmp ne i64 %178, 0
  br i1 %179, label %180, label %186

180:                                              ; preds = %172
  %181 = load i32, ptr %32, align 4
  %182 = load i32, ptr %25, align 4
  %183 = load ptr, ptr %29, align 8
  %184 = load i32, ptr %28, align 4
  %185 = load ptr, ptr %27, align 8
  call void @zend_wrong_parameter_error(i32 noundef %181, i32 noundef %182, ptr noundef %183, i32 noundef %184, ptr noundef %185)
  br label %223

186:                                              ; preds = %172
  br label %187

187:                                              ; preds = %186
  %188 = load i64, ptr %19, align 8
  %189 = trunc i64 %188 to i32
  %190 = call ptr @getgrgid(i32 noundef %189)
  store ptr %190, ptr %20, align 8
  %191 = icmp eq ptr null, %190
  br i1 %191, label %192, label %201

192:                                              ; preds = %187
  %193 = call ptr @__errno_location() #10
  %194 = load i32, ptr %193, align 4
  store i32 %194, ptr @posix_globals, align 4
  br label %195

195:                                              ; preds = %192
  br label %196

196:                                              ; preds = %195
  %197 = load ptr, ptr %18, align 8
  %198 = getelementptr inbounds %struct._zval_struct, ptr %197, i32 0, i32 1
  store i32 2, ptr %198, align 8
  br label %199

199:                                              ; preds = %196
  br label %223

200:                                              ; No predecessors!
  br label %201

201:                                              ; preds = %200, %187
  br label %202

202:                                              ; preds = %201
  %203 = call ptr @_zend_new_array_0()
  store ptr %203, ptr %33, align 8
  %204 = load ptr, ptr %18, align 8
  store ptr %204, ptr %34, align 8
  %205 = load ptr, ptr %33, align 8
  %206 = load ptr, ptr %34, align 8
  %207 = getelementptr inbounds %struct._zval_struct, ptr %206, i32 0, i32 0
  store ptr %205, ptr %207, align 8
  %208 = load ptr, ptr %34, align 8
  %209 = getelementptr inbounds %struct._zval_struct, ptr %208, i32 0, i32 1
  store i32 775, ptr %209, align 8
  br label %210

210:                                              ; preds = %202
  %211 = load ptr, ptr %20, align 8
  %212 = load ptr, ptr %18, align 8
  %213 = call i32 @php_posix_group_to_array(ptr noundef %211, ptr noundef %212)
  %214 = icmp ne i32 %213, 0
  br i1 %214, label %223, label %215

215:                                              ; preds = %210
  %216 = load ptr, ptr %18, align 8
  %217 = getelementptr inbounds %struct._zval_struct, ptr %216, i32 0, i32 0
  %218 = load ptr, ptr %217, align 8
  call void @zend_array_destroy(ptr noundef %218)
  call void (ptr, i32, ptr, ...) @php_error_docref(ptr noundef null, i32 noundef 2, ptr noundef @.str.23)
  br label %219

219:                                              ; preds = %215
  %220 = load ptr, ptr %18, align 8
  %221 = getelementptr inbounds %struct._zval_struct, ptr %220, i32 0, i32 1
  store i32 2, ptr %221, align 8
  br label %222

222:                                              ; preds = %219
  br label %223

223:                                              ; preds = %222, %210, %199, %180
  ret void
}